target datalayout = "e-m:e-p270:32:32-p271:32:32-p272:64:64-i64:64-f80:128-n8:16:32:64-S128"
target triple = "x86_64-pc-linux-gnu"

@.str = private unnamed_addr constant [3 x i8] c"%d\00", align 1

; Function Attrs: noinline nounwind uwtable
define dso_local i32 @max(i32 %0, i32 %1) #0 {
  %3 = alloca i32, align 4
  %4 = alloca i32, align 4
  %5 = alloca i32, align 4
  store i32 %0, i32* %4, align 4
  store i32 %1, i32* %5, align 4
  %6 = load i32, i32* %4, align 4
  %7 = load i32, i32* %5, align 4
  %8 = icmp sge i32 %6, %7
  br i1 %8, label %9, label %11

9:                                                ; preds = %2
  %10 = load i32, i32* %4, align 4
  store i32 %10, i32* %3, align 4
  br label %13

11:                                               ; preds = %2
  %12 = load i32, i32* %5, align 4
  store i32 %12, i32* %3, align 4
  br label %13

13:                                               ; preds = %11, %9
  %14 = load i32, i32* %3, align 4
  ret i32 %14
}

; Function Attrs: noinline nounwind uwtable
define dso_local i32 @haha(i32* %0, i32* %1, i32 %2) #0 {
  %4 = alloca i32*, align 8
  %5 = alloca i32*, align 8
  %6 = alloca i32, align 4
  %7 = alloca i32, align 4
  %8 = alloca i32, align 4
  %9 = alloca i32, align 4
  store i32* %0, i32** %4, align 8
  store i32* %1, i32** %5, align 8
  store i32 %2, i32* %6, align 4
  store i32 0, i32* %9, align 4
  %10 = load i32*, i32** %5, align 8
  %11 = load i32, i32* %6, align 4
  %12 = sub nsw i32 %11, 1
  %13 = sext i32 %12 to i64
  %14 = getelementptr inbounds i32, i32* %10, i64 %13
  store i32 1, i32* %14, align 4
  %15 = load i32, i32* %6, align 4
  %16 = sub nsw i32 %15, 2
  store i32 %16, i32* %7, align 4
  br label %17

17:                                               ; preds = %58, %3
  %18 = load i32, i32* %7, align 4
  %19 = icmp sge i32 %18, 0
  br i1 %19, label %20, label %61

20:                                               ; preds = %17
  %21 = load i32, i32* %7, align 4
  %22 = add nsw i32 %21, 1
  store i32 %22, i32* %8, align 4
  br label %23

23:                                               ; preds = %48, %20
  %24 = load i32, i32* %8, align 4
  %25 = load i32, i32* %6, align 4
  %26 = icmp slt i32 %24, %25
  br i1 %26, label %27, label %51

27:                                               ; preds = %23
  %28 = load i32*, i32** %4, align 8
  %29 = load i32, i32* %7, align 4
  %30 = sext i32 %29 to i64
  %31 = getelementptr inbounds i32, i32* %28, i64 %30
  %32 = load i32, i32* %31, align 4
  %33 = load i32*, i32** %4, align 8
  %34 = load i32, i32* %8, align 4
  %35 = sext i32 %34 to i64
  %36 = getelementptr inbounds i32, i32* %33, i64 %35
  %37 = load i32, i32* %36, align 4
  %38 = icmp sge i32 %32, %37
  br i1 %38, label %39, label %47

39:                                               ; preds = %27
  %40 = load i32, i32* %9, align 4
  %41 = load i32*, i32** %5, align 8
  %42 = load i32, i32* %8, align 4
  %43 = sext i32 %42 to i64
  %44 = getelementptr inbounds i32, i32* %41, i64 %43
  %45 = load i32, i32* %44, align 4
  %46 = call i32 @max(i32 %40, i32 %45)
  store i32 %46, i32* %9, align 4
  br label %47

47:                                               ; preds = %39, %27
  br label %48

48:                                               ; preds = %47
  %49 = load i32, i32* %8, align 4
  %50 = add nsw i32 %49, 1
  store i32 %50, i32* %8, align 4
  br label %23

51:                                               ; preds = %23
  %52 = load i32, i32* %9, align 4
  %53 = add nsw i32 %52, 1
  %54 = load i32*, i32** %5, align 8
  %55 = load i32, i32* %7, align 4
  %56 = sext i32 %55 to i64
  %57 = getelementptr inbounds i32, i32* %54, i64 %56
  store i32 %53, i32* %57, align 4
  store i32 0, i32* %9, align 4
  br label %58

58:                                               ; preds = %51
  %59 = load i32, i32* %7, align 4
  %60 = add nsw i32 %59, -1
  store i32 %60, i32* %7, align 4
  br label %17

61:                                               ; preds = %17
  %62 = load i32, i32* %6, align 4
  %63 = sub nsw i32 %62, 1
  store i32 %63, i32* %7, align 4
  br label %64

64:                                               ; preds = %75, %61
  %65 = load i32, i32* %7, align 4
  %66 = icmp sgt i32 %65, -1
  br i1 %66, label %67, label %78

67:                                               ; preds = %64
  %68 = load i32, i32* %9, align 4
  %69 = load i32*, i32** %5, align 8
  %70 = load i32, i32* %7, align 4
  %71 = sext i32 %70 to i64
  %72 = getelementptr inbounds i32, i32* %69, i64 %71
  %73 = load i32, i32* %72, align 4
  %74 = call i32 @max(i32 %68, i32 %73)
  store i32 %74, i32* %9, align 4
  br label %75

75:                                               ; preds = %67
  %76 = load i32, i32* %7, align 4
  %77 = add nsw i32 %76, -1
  store i32 %77, i32* %7, align 4
  br label %64

78:                                               ; preds = %64
  %79 = load i32, i32* %9, align 4
  ret i32 %79
}

; Function Attrs: noinline nounwind uwtable
define dso_local i32 @main() #0 {
  %1 = alloca i32, align 4
  %2 = alloca [25 x i32], align 16
  %3 = alloca [25 x i32], align 16
  %4 = alloca i32, align 4
  %5 = alloca i32, align 4
  store i32 0, i32* %1, align 4
  %6 = bitcast [25 x i32]* %3 to i8*
  call void @llvm.memset.p0i8.i64(i8* align 16 %6, i8 0, i64 100, i1 false)
  %7 = call i32 (i8*, ...) @__isoc99_scanf(i8* getelementptr inbounds ([3 x i8], [3 x i8]* @.str, i64 0, i64 0), i32* %4)
  store i32 0, i32* %5, align 4
  br label %8

8:                                                ; preds = %17, %0
  %9 = load i32, i32* %5, align 4
  %10 = load i32, i32* %4, align 4
  %11 = icmp slt i32 %9, %10
  br i1 %11, label %12, label %20

12:                                               ; preds = %8
  %13 = load i32, i32* %5, align 4
  %14 = sext i32 %13 to i64
  %15 = getelementptr inbounds [25 x i32], [25 x i32]* %2, i64 0, i64 %14
  %16 = call i32 (i8*, ...) @__isoc99_scanf(i8* getelementptr inbounds ([3 x i8], [3 x i8]* @.str, i64 0, i64 0), i32* %15)
  br label %17

17:                                               ; preds = %12
  %18 = load i32, i32* %5, align 4
  %19 = add nsw i32 %18, 1
  store i32 %19, i32* %5, align 4
  br label %8

20:                                               ; preds = %8
  %21 = getelementptr inbounds [25 x i32], [25 x i32]* %2, i64 0, i64 0
  %22 = getelementptr inbounds [25 x i32], [25 x i32]* %3, i64 0, i64 0
  %23 = load i32, i32* %4, align 4
  %24 = call i32 @haha(i32* %21, i32* %22, i32 %23)
  %25 = call i32 (i8*, ...) @printf(i8* getelementptr inbounds ([3 x i8], [3 x i8]* @.str, i64 0, i64 0), i32 %24)
  %26 = load i32, i32* %1, align 4
  ret i32 %26
}